; Function Attrs: nounwind uwtable
define void @png_push_have_row(ptr noalias noundef %0, ptr noundef %1) local_unnamed_addr #0 {
  %3 = getelementptr inbounds i8, ptr %0, i64 792
  %4 = load ptr, ptr %3, align 8
  %.not = icmp eq ptr %4, null
  br i1 %.not, label %11, label %5

5:                                                ; preds = %2
  %6 = getelementptr inbounds i8, ptr %0, i64 532
  %7 = load i32, ptr %6, align 4
  %8 = getelementptr inbounds i8, ptr %0, i64 613
  %9 = load i8, ptr %8, align 1
  %10 = zext i8 %9 to i32
  tail call void %4(ptr noundef nonnull %0, ptr noundef %1, i32 noundef %7, i32 noundef %10) #11
  br label %11

11:                                               ; preds = %5, %2
  ret void
}